; Function Attrs: nounwind uwtable
define void @Gia_ManCountPisNodes_rec(ptr noundef %0, ptr noundef %1, ptr noundef %2, ptr noundef %3) local_unnamed_addr #2 {
  %5 = getelementptr inbounds nuw i8, ptr %0, i64 616
  %6 = load ptr, ptr %5, align 8, !tbaa !61
  %7 = getelementptr i8, ptr %0, i64 32
  %.val.i = load ptr, ptr %7, align 8, !tbaa !3
  %8 = ptrtoint ptr %1 to i64
  %9 = ptrtoint ptr %.val.i to i64
  %10 = sub i64 %8, %9
  %11 = sdiv exact i64 %10, 12
  %sext.i = shl i64 %11, 32
  %12 = ashr exact i64 %sext.i, 30
  %13 = getelementptr inbounds i8, ptr %6, i64 %12
  %14 = load i32, ptr %13, align 4, !tbaa !30
  %15 = getelementptr inbounds nuw i8, ptr %0, i64 176
  %16 = load i32, ptr %15, align 8, !tbaa !60
  %.not = icmp eq i32 %14, %16
  br i1 %.not, label %93, label %17

17:                                               ; preds = %4
  store i32 %16, ptr %13, align 4, !tbaa !30
  %18 = load i64, ptr %1, align 4
  %19 = and i64 %18, 4611686018427387904
  %.not19 = icmp eq i64 %19, 0
  br i1 %.not19, label %50, label %20

20:                                               ; preds = %17
  %21 = getelementptr inbounds nuw i8, ptr %2, i64 4
  %22 = load i32, ptr %21, align 4, !tbaa !33
  %23 = load i32, ptr %2, align 8, !tbaa !31
  %24 = icmp eq i32 %22, %23
  br i1 %24, label %25, label %.Vec_IntGrow.exit10_crit_edge.i

.Vec_IntGrow.exit10_crit_edge.i:                  ; preds = %20
  %.phi.trans.insert.i = getelementptr inbounds nuw i8, ptr %2, i64 8
  %.pre.i = load ptr, ptr %.phi.trans.insert.i, align 8, !tbaa !29
  br label %Vec_IntPush.exit

25:                                               ; preds = %20
  %26 = icmp slt i32 %22, 16
  br i1 %26, label %27, label %35

27:                                               ; preds = %25
  %28 = getelementptr inbounds nuw i8, ptr %2, i64 8
  %29 = load ptr, ptr %28, align 8, !tbaa !29
  %.not9.i.i = icmp eq ptr %29, null
  br i1 %.not9.i.i, label %32, label %30

30:                                               ; preds = %27
  %31 = tail call dereferenceable_or_null(64) ptr @realloc(ptr noundef nonnull %29, i64 noundef 64) #24
  br label %Vec_IntGrow.exit.i

32:                                               ; preds = %27
  %33 = tail call noalias dereferenceable_or_null(64) ptr @malloc(i64 noundef 64) #25
  br label %Vec_IntGrow.exit.i

Vec_IntGrow.exit.i:                               ; preds = %32, %30
  %34 = phi ptr [ %31, %30 ], [ %33, %32 ]
  store ptr %34, ptr %28, align 8, !tbaa !29
  store i32 16, ptr %2, align 8, !tbaa !31
  br label %Vec_IntPush.exit

35:                                               ; preds = %25
  %36 = shl nuw nsw i32 %22, 1
  %37 = getelementptr inbounds nuw i8, ptr %2, i64 8
  %38 = load ptr, ptr %37, align 8, !tbaa !29
  %.not9.i9.i = icmp eq ptr %38, null
  %39 = zext nneg i32 %36 to i64
  %40 = shl nuw nsw i64 %39, 2
  br i1 %.not9.i9.i, label %43, label %41

41:                                               ; preds = %35
  %42 = tail call ptr @realloc(ptr noundef nonnull %38, i64 noundef %40) #24
  br label %45

43:                                               ; preds = %35
  %44 = tail call noalias ptr @malloc(i64 noundef %40) #25
  br label %45

45:                                               ; preds = %43, %41
  %46 = phi ptr [ %42, %41 ], [ %44, %43 ]
  store ptr %46, ptr %37, align 8, !tbaa !29
  store i32 %36, ptr %2, align 8, !tbaa !31
  br label %Vec_IntPush.exit

Vec_IntPush.exit:                                 ; preds = %.Vec_IntGrow.exit10_crit_edge.i, %Vec_IntGrow.exit.i, %45
  %47 = phi ptr [ %.pre.i, %.Vec_IntGrow.exit10_crit_edge.i ], [ %46, %45 ], [ %34, %Vec_IntGrow.exit.i ]
  %48 = load i32, ptr %21, align 4, !tbaa !33
  %49 = add nsw i32 %48, 1
  store i32 %49, ptr %21, align 4, !tbaa !33
  br label %.sink.split

50:                                               ; preds = %17
  %51 = and i64 %18, 536870911
  %52 = sub nsw i64 0, %51
  %53 = getelementptr inbounds %struct.Gia_Obj_t_, ptr %1, i64 %52
  tail call void @Gia_ManCountPisNodes_rec(ptr noundef nonnull %0, ptr noundef nonnull %53, ptr noundef %2, ptr noundef %3)
  %54 = load i64, ptr %1, align 4
  %55 = lshr i64 %54, 32
  %56 = and i64 %55, 536870911
  %57 = sub nsw i64 0, %56
  %58 = getelementptr inbounds %struct.Gia_Obj_t_, ptr %1, i64 %57
  tail call void @Gia_ManCountPisNodes_rec(ptr noundef nonnull %0, ptr noundef nonnull %58, ptr noundef %2, ptr noundef %3)
  %.val = load ptr, ptr %7, align 8, !tbaa !3
  %59 = ptrtoint ptr %.val to i64
  %60 = sub i64 %8, %59
  %61 = sdiv exact i64 %60, 12
  %62 = getelementptr inbounds nuw i8, ptr %3, i64 4
  %63 = load i32, ptr %62, align 4, !tbaa !33
  %64 = load i32, ptr %3, align 8, !tbaa !31
  %65 = icmp eq i32 %63, %64
  br i1 %65, label %66, label %.Vec_IntGrow.exit10_crit_edge.i23

.Vec_IntGrow.exit10_crit_edge.i23:                ; preds = %50
  %.phi.trans.insert.i24 = getelementptr inbounds nuw i8, ptr %3, i64 8
  %.pre.i25 = load ptr, ptr %.phi.trans.insert.i24, align 8, !tbaa !29
  br label %Vec_IntPush.exit29

66:                                               ; preds = %50
  %67 = icmp slt i32 %63, 16
  br i1 %67, label %68, label %76

68:                                               ; preds = %66
  %69 = getelementptr inbounds nuw i8, ptr %3, i64 8
  %70 = load ptr, ptr %69, align 8, !tbaa !29
  %.not9.i.i27 = icmp eq ptr %70, null
  br i1 %.not9.i.i27, label %73, label %71

71:                                               ; preds = %68
  %72 = tail call dereferenceable_or_null(64) ptr @realloc(ptr noundef nonnull %70, i64 noundef 64) #24
  br label %Vec_IntGrow.exit.i28

73:                                               ; preds = %68
  %74 = tail call noalias dereferenceable_or_null(64) ptr @malloc(i64 noundef 64) #25
  br label %Vec_IntGrow.exit.i28

Vec_IntGrow.exit.i28:                             ; preds = %73, %71
  %75 = phi ptr [ %72, %71 ], [ %74, %73 ]
  store ptr %75, ptr %69, align 8, !tbaa !29
  store i32 16, ptr %3, align 8, !tbaa !31
  br label %Vec_IntPush.exit29

76:                                               ; preds = %66
  %77 = shl nuw nsw i32 %63, 1
  %78 = getelementptr inbounds nuw i8, ptr %3, i64 8
  %79 = load ptr, ptr %78, align 8, !tbaa !29
  %.not9.i9.i26 = icmp eq ptr %79, null
  %80 = zext nneg i32 %77 to i64
  %81 = shl nuw nsw i64 %80, 2
  br i1 %.not9.i9.i26, label %84, label %82

82:                                               ; preds = %76
  %83 = tail call ptr @realloc(ptr noundef nonnull %79, i64 noundef %81) #24
  br label %86

84:                                               ; preds = %76
  %85 = tail call noalias ptr @malloc(i64 noundef %81) #25
  br label %86

86:                                               ; preds = %84, %82
  %87 = phi ptr [ %83, %82 ], [ %85, %84 ]
  store ptr %87, ptr %78, align 8, !tbaa !29
  store i32 %77, ptr %3, align 8, !tbaa !31
  br label %Vec_IntPush.exit29

Vec_IntPush.exit29:                               ; preds = %.Vec_IntGrow.exit10_crit_edge.i23, %Vec_IntGrow.exit.i28, %86
  %88 = phi ptr [ %.pre.i25, %.Vec_IntGrow.exit10_crit_edge.i23 ], [ %87, %86 ], [ %75, %Vec_IntGrow.exit.i28 ]
  %89 = load i32, ptr %62, align 4, !tbaa !33
  %90 = add nsw i32 %89, 1
  store i32 %90, ptr %62, align 4, !tbaa !33
  br label %.sink.split

.sink.split:                                      ; preds = %Vec_IntPush.exit, %Vec_IntPush.exit29
  %.sink33 = phi i32 [ %89, %Vec_IntPush.exit29 ], [ %48, %Vec_IntPush.exit ]
  %.sink31 = phi ptr [ %88, %Vec_IntPush.exit29 ], [ %47, %Vec_IntPush.exit ]
  %.sink.in = phi i64 [ %61, %Vec_IntPush.exit29 ], [ %11, %Vec_IntPush.exit ]
  %.sink = trunc i64 %.sink.in to i32
  %91 = sext i32 %.sink33 to i64
  %92 = getelementptr inbounds i32, ptr %.sink31, i64 %91
  store i32 %.sink, ptr %92, align 4, !tbaa !30
  br label %93

93:                                               ; preds = %.sink.split, %4
  ret void
}